target datalayout = "e-m:e-p270:32:32-p271:32:32-p272:64:64-i64:64-i128:128-f80:128-n8:16:32:64-S128"
target triple = "x86_64-pc-linux-gnu"

%"struct.std::_Rb_tree_header" = type { %"struct.std::_Rb_tree_node_base", i64 }
%"struct.std::_Rb_tree_node_base" = type { i32, ptr, ptr, ptr }
%"class.std::set" = type { %"class.std::_Rb_tree.8" }
%"class.std::_Rb_tree.8" = type { %"struct.std::_Rb_tree<AstSenTree *, AstSenTree *, std::_Identity<AstSenTree *>, std::less<AstSenTree *>>::_Rb_tree_impl" }
%"struct.std::_Rb_tree<AstSenTree *, AstSenTree *, std::_Identity<AstSenTree *>, std::less<AstSenTree *>>::_Rb_tree_impl" = type { %"struct.std::_Rb_tree_key_compare.12", %"struct.std::_Rb_tree_header" }
%"struct.std::_Rb_tree_key_compare.12" = type { %"struct.std::less.13" }
%"struct.std::less.13" = type { i8 }
%class.AwaitVisitor = type { %class.VNVisitor, %class.VNUser1InUse, i8, i8, ptr, ptr, ptr, ptr, %"class.std::set", %"class.std::vector.107" }
%class.VNVisitor = type { %class.VNVisitorConst, %class.VNDeleter }
%class.VNVisitorConst = type { ptr }
%class.VNDeleter = type { %"class.std::vector.102" }
%"class.std::vector.102" = type { %"struct.std::_Vector_base.103" }
%"struct.std::_Vector_base.103" = type { %"struct.std::_Vector_base<AstNode *, std::allocator<AstNode *>>::_Vector_impl" }
%"struct.std::_Vector_base<AstNode *, std::allocator<AstNode *>>::_Vector_impl" = type { %"struct.std::_Vector_base<AstNode *, std::allocator<AstNode *>>::_Vector_impl_data" }
%"struct.std::_Vector_base<AstNode *, std::allocator<AstNode *>>::_Vector_impl_data" = type { ptr, ptr, ptr }
%class.VNUser1InUse = type { i8 }
%"class.std::vector.107" = type { %"struct.std::_Vector_base.108" }
%"struct.std::_Vector_base.108" = type { %"struct.std::_Vector_base<AstVarScope *, std::allocator<AstVarScope *>>::_Vector_impl" }
%"struct.std::_Vector_base<AstVarScope *, std::allocator<AstVarScope *>>::_Vector_impl" = type { %"struct.std::_Vector_base<AstVarScope *, std::allocator<AstVarScope *>>::_Vector_impl_data" }
%"struct.std::_Vector_base<AstVarScope *, std::allocator<AstVarScope *>>::_Vector_impl_data" = type { ptr, ptr, ptr }
%class.VRestorer = type <{ ptr, i8, [7 x i8] }>

; Function Attrs: mustprogress nounwind uwtable
define linkonce_odr dso_local void @_ZN9VRestorerIbED2Ev(ptr noundef nonnull align 8 dereferenceable(16) %0) unnamed_addr #5 comdat align 2 {
  %2 = alloca ptr, align 8
  store ptr %0, ptr %2, align 8
  %3 = load ptr, ptr %2, align 8
  %4 = getelementptr inbounds %class.VRestorer, ptr %3, i32 0, i32 1
  %5 = load i8, ptr %4, align 8
  %6 = trunc i8 %5 to i1
  %7 = getelementptr inbounds %class.VRestorer, ptr %3, i32 0, i32 0
  %8 = load ptr, ptr %7, align 8
  %9 = zext i1 %6 to i8
  store i8 %9, ptr %8, align 1
  ret void
}

; Function Attrs: mustprogress uwtable
define linkonce_odr dso_local void @_ZN9VNVisitor15iterateChildrenEP7AstNode(ptr noundef nonnull align 8 dereferenceable(32) %0, ptr noundef %1) #4 comdat align 2 {
  %3 = alloca ptr, align 8
  %4 = alloca ptr, align 8
  store ptr %0, ptr %3, align 8
  store ptr %1, ptr %4, align 8
  %5 = load ptr, ptr %3, align 8
  %6 = load ptr, ptr %4, align 8
  call void @_ZN7AstNode15iterateChildrenER9VNVisitor(ptr noundef nonnull align 8 dereferenceable(152) %6, ptr noundef nonnull align 8 dereferenceable(32) %5)
  ret void
}

; Function Attrs: mustprogress nounwind uwtable
define linkonce_odr dso_local void @_ZN9VRestorerIbEC2ERb(ptr noundef nonnull align 8 dereferenceable(16) %0, ptr noundef nonnull align 1 dereferenceable(1) %1) unnamed_addr #5 comdat align 2 {
  %3 = alloca ptr, align 8
  %4 = alloca ptr, align 8
  store ptr %0, ptr %3, align 8
  store ptr %1, ptr %4, align 8
  %5 = load ptr, ptr %3, align 8
  %6 = getelementptr inbounds %class.VRestorer, ptr %5, i32 0, i32 0
  %7 = load ptr, ptr %4, align 8
  store ptr %7, ptr %6, align 8
  %8 = getelementptr inbounds %class.VRestorer, ptr %5, i32 0, i32 1
  %9 = load ptr, ptr %4, align 8
  %10 = load i8, ptr %9, align 1
  %11 = trunc i8 %10 to i1
  %12 = zext i1 %11 to i8
  store i8 %12, ptr %8, align 8
  ret void
}

; Function Attrs: mustprogress uwtable
define internal void @_ZZN7V3Sched13prepareTimingEP10AstNetlistEN12AwaitVisitor5visitEP7AstFork(ptr noundef nonnull align 8 dereferenceable(144) %0, ptr noundef %1) unnamed_addr #4 align 2 personality ptr @__gxx_personality_v0 {
  %3 = alloca ptr, align 8
  %4 = alloca ptr, align 8
  %5 = alloca %class.VRestorer, align 8
  %6 = alloca ptr, align 8
  %7 = alloca i32, align 4
  store ptr %0, ptr %3, align 8
  store ptr %1, ptr %4, align 8
  %8 = load ptr, ptr %3, align 8
  %9 = getelementptr inbounds %class.AwaitVisitor, ptr %8, i32 0, i32 3
  call void @_ZN9VRestorerIbEC2ERb(ptr noundef nonnull align 8 dereferenceable(16) %5, ptr noundef nonnull align 1 dereferenceable(1) %9)
  %10 = getelementptr inbounds %class.AwaitVisitor, ptr %8, i32 0, i32 2
  %11 = load i8, ptr %10, align 1
  %12 = trunc i8 %11 to i1
  br i1 %12, label %13, label %15

13:                                               ; preds = %2
  %14 = getelementptr inbounds %class.AwaitVisitor, ptr %8, i32 0, i32 3
  store i8 1, ptr %14, align 2
  br label %15

15:                                               ; preds = %13, %2
  %16 = load ptr, ptr %4, align 8
  invoke void @_ZN9VNVisitor15iterateChildrenEP7AstNode(ptr noundef nonnull align 8 dereferenceable(32) %8, ptr noundef %16)
          to label %17 unwind label %18

17:                                               ; preds = %15
  call void @_ZN9VRestorerIbED2Ev(ptr noundef nonnull align 8 dereferenceable(16) %5) #3
  ret void

18:                                               ; preds = %15
  %19 = landingpad { ptr, i32 }
          cleanup
  %20 = extractvalue { ptr, i32 } %19, 0
  store ptr %20, ptr %6, align 8
  %21 = extractvalue { ptr, i32 } %19, 1
  store i32 %21, ptr %7, align 4
  call void @_ZN9VRestorerIbED2Ev(ptr noundef nonnull align 8 dereferenceable(16) %5) #3
  br label %22

22:                                               ; preds = %18
  %23 = load ptr, ptr %6, align 8
  %24 = load i32, ptr %7, align 4
  %25 = insertvalue { ptr, i32 } poison, ptr %23, 0
  %26 = insertvalue { ptr, i32 } %25, i32 %24, 1
  resume { ptr, i32 } %26
}