; Function Attrs: mustprogress uwtable
define internal void @_ZZN7V3Sched13prepareTimingEP10AstNetlistEN12AwaitVisitor5visitEP7AstFork(ptr noundef nonnull align 8 dereferenceable(144) %0, ptr noundef %1) unnamed_addr #3 align 2 personality ptr @__gxx_personality_v0 {
  %3 = getelementptr inbounds i8, ptr %0, i64 34
  %4 = load i8, ptr %3, align 2
  %5 = and i8 %4, 1
  %6 = getelementptr inbounds i8, ptr %0, i64 33
  %7 = load i8, ptr %6, align 1
  %8 = and i8 %7, 1
  %.not = icmp eq i8 %8, 0
  br i1 %.not, label %10, label %9

9:                                                ; preds = %2
  store i8 1, ptr %3, align 2
  br label %10

10:                                               ; preds = %9, %2
  invoke void @_ZN7AstNode15iterateChildrenER9VNVisitor(ptr noundef nonnull align 8 dereferenceable(152) %1, ptr noundef nonnull align 8 dereferenceable(32) %0)
          to label %_ZN9VNVisitor15iterateChildrenEP7AstNode.exit unwind label %11

_ZN9VNVisitor15iterateChildrenEP7AstNode.exit:    ; preds = %10
  store i8 %5, ptr %3, align 2
  ret void

11:                                               ; preds = %10
  %12 = landingpad { ptr, i32 }
          cleanup
  store i8 %5, ptr %3, align 2
  resume { ptr, i32 } %12
}